target datalayout = "e-m:e-p270:32:32-p271:32:32-p272:64:64-i64:64-i128:128-f80:128-n8:16:32:64-S128"
target triple = "x86_64-pc-linux-gnu"

%"class.grpc_core::NoDestruct.144" = type { [8 x i8] }
%"struct.grpc_core::json_detail::Element" = type { ptr, i16, i8, ptr, ptr }
%"class.grpc_core::json_detail::Vec.19" = type { [1 x %"struct.grpc_core::json_detail::Element"] }
%"class.grpc_core::json_detail::JsonObjectLoader.49" = type { %"class.grpc_core::json_detail::Vec.19" }
%"class.grpc_core::json_detail::JsonObjectLoader.50" = type { i8 }
%"class.grpc_core::json_detail::LoaderInterface" = type { ptr }
%"class.grpc_core::json_detail::FinishedJsonObjectLoader.51" = type { %"class.grpc_core::json_detail::LoaderInterface", %"class.grpc_core::json_detail::Vec.19" }

@_ZZN9grpc_core32FaultInjectionMethodParsedConfig10JsonLoaderERKNS_8JsonArgsEE6loader = internal global ptr null, align 8
@_ZGVZN9grpc_core32FaultInjectionMethodParsedConfig10JsonLoaderERKNS_8JsonArgsEE6loader = internal global i64 0, align 8
@.str.17 = private unnamed_addr constant [21 x i8] c"faultInjectionPolicy\00", align 1
@_ZN9grpc_core19NoDestructSingletonINS_11json_detail10AutoLoaderISt6vectorINS_32FaultInjectionMethodParsedConfig20FaultInjectionPolicyESaIS5_EEEEE6value_E = linkonce_odr global %"class.grpc_core::NoDestruct.144" zeroinitializer, comdat, align 8
@_ZTVN9grpc_core11json_detail15LoaderInterfaceE = linkonce_odr unnamed_addr constant { [3 x ptr] } { [3 x ptr] [ptr null, ptr @_ZTIN9grpc_core11json_detail15LoaderInterfaceE, ptr @__cxa_pure_virtual] }, comdat, align 8

; Function Attrs: mustprogress nounwind uwtable
define linkonce_odr noundef ptr @_ZN9grpc_core10NoDestructINS_11json_detail10AutoLoaderISt6vectorINS_32FaultInjectionMethodParsedConfig20FaultInjectionPolicyESaIS5_EEEEE3getEv(ptr noundef nonnull align 8 dereferenceable(8) %0) #6 comdat align 2 {
  %2 = alloca ptr, align 8
  store ptr %0, ptr %2, align 8, !tbaa !132
  %3 = load ptr, ptr %2, align 8
  %4 = getelementptr inbounds nuw %"class.grpc_core::NoDestruct.144", ptr %3, i32 0, i32 0
  ret ptr %4
}

; Function Attrs: mustprogress nounwind uwtable
define linkonce_odr noundef ptr @_ZNK9grpc_core11json_detail3VecINS0_7ElementELm0EE4dataEv(ptr noundef nonnull align 1 dereferenceable(1) %0) #6 comdat align 2 {
  %2 = alloca ptr, align 8
  store ptr %0, ptr %2, align 8, !tbaa !247
  ret ptr null
}

; Function Attrs: mustprogress nounwind uwtable
define linkonce_odr noundef i64 @_ZNK9grpc_core11json_detail3VecINS0_7ElementELm0EE4sizeEv(ptr noundef nonnull align 1 dereferenceable(1) %0) #6 comdat align 2 {
  %2 = alloca ptr, align 8
  store ptr %0, ptr %2, align 8, !tbaa !247
  ret i64 0
}

; Function Attrs: mustprogress uwtable
define linkonce_odr noundef nonnull align 8 dereferenceable(8) ptr @_ZN9grpc_core10NoDestructINS_11json_detail10AutoLoaderISt6vectorINS_32FaultInjectionMethodParsedConfig20FaultInjectionPolicyESaIS5_EEEEEdeEv(ptr noundef nonnull align 8 dereferenceable(8) %0) #4 comdat align 2 {
  %2 = alloca ptr, align 8
  store ptr %0, ptr %2, align 8, !tbaa !132
  %3 = load ptr, ptr %2, align 8
  %4 = call noundef ptr @_ZN9grpc_core10NoDestructINS_11json_detail10AutoLoaderISt6vectorINS_32FaultInjectionMethodParsedConfig20FaultInjectionPolicyESaIS5_EEEEE3getEv(ptr noundef nonnull align 8 dereferenceable(8) %3)
  ret ptr %4
}

; Function Attrs: mustprogress uwtable
define linkonce_odr void @_ZN9grpc_core11json_detail3VecINS0_7ElementELm1EEC2ERKNS1_IS2_Lm0EEERKS2_(ptr noundef nonnull align 8 dereferenceable(32) %0, ptr noundef nonnull align 1 dereferenceable(1) %1, ptr noundef nonnull align 8 dereferenceable(32) %2) unnamed_addr #4 comdat align 2 {
  %4 = alloca ptr, align 8
  %5 = alloca ptr, align 8
  %6 = alloca ptr, align 8
  %7 = alloca i64, align 8
  store ptr %0, ptr %4, align 8, !tbaa !249
  store ptr %1, ptr %5, align 8, !tbaa !247
  store ptr %2, ptr %6, align 8, !tbaa !237
  %8 = load ptr, ptr %4, align 8
  call void @llvm.lifetime.start.p0(i64 8, ptr %7) #3
  store i64 0, ptr %7, align 8, !tbaa !58
  br label %9

9:                                                ; preds = %23, %3
  %10 = load i64, ptr %7, align 8, !tbaa !58
  %11 = load ptr, ptr %5, align 8, !tbaa !247
  %12 = call noundef i64 @_ZNK9grpc_core11json_detail3VecINS0_7ElementELm0EE4sizeEv(ptr noundef nonnull align 1 dereferenceable(1) %11)
  %13 = icmp ult i64 %10, %12
  br i1 %13, label %15, label %14

14:                                               ; preds = %9
  call void @llvm.lifetime.end.p0(i64 8, ptr %7) #3
  br label %26

15:                                               ; preds = %9
  %16 = load ptr, ptr %5, align 8, !tbaa !247
  %17 = call noundef ptr @_ZNK9grpc_core11json_detail3VecINS0_7ElementELm0EE4dataEv(ptr noundef nonnull align 1 dereferenceable(1) %16)
  %18 = load i64, ptr %7, align 8, !tbaa !58
  %19 = getelementptr inbounds nuw %"struct.grpc_core::json_detail::Element", ptr %17, i64 %18
  %20 = getelementptr inbounds nuw %"class.grpc_core::json_detail::Vec.19", ptr %8, i32 0, i32 0
  %21 = load i64, ptr %7, align 8, !tbaa !58
  %22 = getelementptr inbounds nuw [1 x %"struct.grpc_core::json_detail::Element"], ptr %20, i64 0, i64 %21
  call void @llvm.memcpy.p0.p0.i64(ptr align 8 %22, ptr align 8 %19, i64 32, i1 false), !tbaa.struct !251
  br label %23

23:                                               ; preds = %15
  %24 = load i64, ptr %7, align 8, !tbaa !58
  %25 = add i64 %24, 1
  store i64 %25, ptr %7, align 8, !tbaa !58
  br label %9, !llvm.loop !252

26:                                               ; preds = %14
  %27 = load ptr, ptr %6, align 8, !tbaa !237
  %28 = getelementptr inbounds nuw %"class.grpc_core::json_detail::Vec.19", ptr %8, i32 0, i32 0
  %29 = getelementptr inbounds nuw [1 x %"struct.grpc_core::json_detail::Element"], ptr %28, i64 0, i64 0
  call void @llvm.memcpy.p0.p0.i64(ptr align 8 %29, ptr align 8 %27, i64 32, i1 false), !tbaa.struct !251
  ret void
}

; Function Attrs: mustprogress uwtable
define linkonce_odr noundef ptr @_ZN9grpc_core19NoDestructSingletonINS_11json_detail10AutoLoaderISt6vectorINS_32FaultInjectionMethodParsedConfig20FaultInjectionPolicyESaIS5_EEEEE3GetEv() #4 comdat align 2 {
  %1 = call noundef nonnull align 8 dereferenceable(8) ptr @_ZN9grpc_core10NoDestructINS_11json_detail10AutoLoaderISt6vectorINS_32FaultInjectionMethodParsedConfig20FaultInjectionPolicyESaIS5_EEEEEdeEv(ptr noundef nonnull align 8 dereferenceable(8) @_ZN9grpc_core19NoDestructSingletonINS_11json_detail10AutoLoaderISt6vectorINS_32FaultInjectionMethodParsedConfig20FaultInjectionPolicyESaIS5_EEEEE6value_E)
  ret ptr %1
}

; Function Attrs: inlinehint mustprogress nounwind uwtable
define linkonce_odr void @_ZN9grpc_core11json_detail15LoaderInterfaceC2Ev(ptr noundef nonnull align 8 dereferenceable(8) %0) unnamed_addr #7 comdat align 2 {
  %2 = alloca ptr, align 8
  store ptr %0, ptr %2, align 8, !tbaa !239
  %3 = load ptr, ptr %2, align 8
  store ptr getelementptr inbounds inrange(-16, 8) ({ [3 x ptr] }, ptr @_ZTVN9grpc_core11json_detail15LoaderInterfaceE, i32 0, i32 0, i32 2), ptr %3, align 8, !tbaa !61
  ret void
}

; Function Attrs: mustprogress uwtable
define linkonce_odr void @_ZN9grpc_core11json_detail16JsonObjectLoaderINS_32FaultInjectionMethodParsedConfigELm1EEC2ERKNS0_3VecINS0_7ElementELm0EEES5_(ptr noundef nonnull align 8 dereferenceable(32) %0, ptr noundef nonnull align 1 dereferenceable(1) %1, ptr noundef byval(%"struct.grpc_core::json_detail::Element") align 8 %2) unnamed_addr #4 comdat align 2 {
  %4 = alloca ptr, align 8
  %5 = alloca ptr, align 8
  store ptr %0, ptr %4, align 8, !tbaa !82
  store ptr %1, ptr %5, align 8, !tbaa !247
  %6 = load ptr, ptr %4, align 8
  %7 = getelementptr inbounds nuw %"class.grpc_core::json_detail::JsonObjectLoader.49", ptr %6, i32 0, i32 0
  %8 = load ptr, ptr %5, align 8, !tbaa !247
  call void @_ZN9grpc_core11json_detail3VecINS0_7ElementELm1EEC2ERKNS1_IS2_Lm0EEERKS2_(ptr noundef nonnull align 8 dereferenceable(32) %7, ptr noundef nonnull align 1 dereferenceable(1) %8, ptr noundef nonnull align 8 dereferenceable(32) %2)
  ret void
}

; Function Attrs: mustprogress nounwind uwtable
define linkonce_odr void @_ZN9grpc_core11json_detail7ElementC2INS_32FaultInjectionMethodParsedConfigESt6vectorINS3_20FaultInjectionPolicyESaIS5_EEEEPKcbMT_T0_PKNS0_15LoaderInterfaceES9_(ptr noundef nonnull align 8 dereferenceable(32) %0, ptr noundef %1, i1 noundef zeroext %2, i64 %3, ptr noundef %4, ptr noundef %5) unnamed_addr #6 comdat align 2 {
  %7 = alloca ptr, align 8
  %8 = alloca ptr, align 8
  %9 = alloca i8, align 1
  %10 = alloca i64, align 8
  %11 = alloca ptr, align 8
  %12 = alloca ptr, align 8
  store ptr %0, ptr %7, align 8, !tbaa !237
  store ptr %1, ptr %8, align 8, !tbaa !13
  %13 = zext i1 %2 to i8
  store i8 %13, ptr %9, align 1, !tbaa !55
  store i64 %3, ptr %10, align 8, !tbaa !15
  store ptr %4, ptr %11, align 8, !tbaa !239
  store ptr %5, ptr %12, align 8, !tbaa !13
  %14 = load ptr, ptr %7, align 8
  %15 = getelementptr inbounds nuw %"struct.grpc_core::json_detail::Element", ptr %14, i32 0, i32 0
  %16 = load ptr, ptr %11, align 8, !tbaa !239
  store ptr %16, ptr %15, align 8, !tbaa !241
  %17 = getelementptr inbounds nuw %"struct.grpc_core::json_detail::Element", ptr %14, i32 0, i32 1
  %18 = load i64, ptr %10, align 8, !tbaa !15
  %19 = getelementptr inbounds i8, ptr null, i64 %18
  %20 = ptrtoint ptr %19 to i64
  %21 = trunc i64 %20 to i16
  store i16 %21, ptr %17, align 8, !tbaa !243
  %22 = getelementptr inbounds nuw %"struct.grpc_core::json_detail::Element", ptr %14, i32 0, i32 2
  %23 = load i8, ptr %9, align 1, !tbaa !55, !range !59, !noundef !60
  %24 = trunc i8 %23 to i1
  %25 = zext i1 %24 to i8
  store i8 %25, ptr %22, align 2, !tbaa !244
  %26 = getelementptr inbounds nuw %"struct.grpc_core::json_detail::Element", ptr %14, i32 0, i32 3
  %27 = load ptr, ptr %8, align 8, !tbaa !13
  store ptr %27, ptr %26, align 8, !tbaa !245
  %28 = getelementptr inbounds nuw %"struct.grpc_core::json_detail::Element", ptr %14, i32 0, i32 4
  %29 = load ptr, ptr %12, align 8, !tbaa !13
  store ptr %29, ptr %28, align 8, !tbaa !246
  ret void
}

; Function Attrs: mustprogress uwtable
define linkonce_odr noundef ptr @_ZN9grpc_core11json_detail13LoaderForTypeISt6vectorINS_32FaultInjectionMethodParsedConfig20FaultInjectionPolicyESaIS4_EEEEPKNS0_15LoaderInterfaceEv() #4 comdat {
  %1 = call noundef ptr @_ZN9grpc_core19NoDestructSingletonINS_11json_detail10AutoLoaderISt6vectorINS_32FaultInjectionMethodParsedConfig20FaultInjectionPolicyESaIS5_EEEEE3GetEv()
  ret ptr %1
}

; Function Attrs: mustprogress nounwind uwtable
define linkonce_odr void @_ZN9grpc_core11json_detail24FinishedJsonObjectLoaderINS_32FaultInjectionMethodParsedConfigELm1EvEC2ERKNS0_3VecINS0_7ElementELm1EEE(ptr noundef nonnull align 8 dereferenceable(40) %0, ptr noundef nonnull align 8 dereferenceable(32) %1) unnamed_addr #6 comdat align 2 {
  %3 = alloca ptr, align 8
  %4 = alloca ptr, align 8
  store ptr %0, ptr %3, align 8, !tbaa !78
  store ptr %1, ptr %4, align 8, !tbaa !249
  %5 = load ptr, ptr %3, align 8
  call void @_ZN9grpc_core11json_detail15LoaderInterfaceC2Ev(ptr noundef nonnull align 8 dereferenceable(8) %5) #3
  store ptr getelementptr inbounds inrange(-16, 8) ({ [3 x ptr] }, ptr @_ZTVN9grpc_core11json_detail24FinishedJsonObjectLoaderINS_32FaultInjectionMethodParsedConfigELm1EvEE, i32 0, i32 0, i32 2), ptr %5, align 8, !tbaa !61
  %6 = getelementptr inbounds nuw %"class.grpc_core::json_detail::FinishedJsonObjectLoader.51", ptr %5, i32 0, i32 1
  %7 = load ptr, ptr %4, align 8, !tbaa !249
  call void @llvm.memcpy.p0.p0.i64(ptr align 8 %6, ptr align 8 %7, i64 32, i1 false), !tbaa.struct !359
  ret void
}

; Function Attrs: mustprogress uwtable
define linkonce_odr void @_ZNK9grpc_core11json_detail16JsonObjectLoaderINS_32FaultInjectionMethodParsedConfigELm0EE5FieldISt6vectorINS2_20FaultInjectionPolicyESaIS6_EEEENS1_IS2_Lm1EEEPKcbMS2_T_SB_(ptr dead_on_unwind noalias writable sret(%"class.grpc_core::json_detail::JsonObjectLoader.49") align 8 %0, ptr noundef nonnull align 1 dereferenceable(1) %1, ptr noundef %2, i1 noundef zeroext %3, i64 %4, ptr noundef %5) #4 comdat align 2 {
  %7 = alloca ptr, align 8
  %8 = alloca ptr, align 8
  %9 = alloca i8, align 1
  %10 = alloca i64, align 8
  %11 = alloca ptr, align 8
  %12 = alloca %"struct.grpc_core::json_detail::Element", align 8
  store ptr %1, ptr %7, align 8, !tbaa !80
  store ptr %2, ptr %8, align 8, !tbaa !13
  %13 = zext i1 %3 to i8
  store i8 %13, ptr %9, align 1, !tbaa !55
  store i64 %4, ptr %10, align 8, !tbaa !15
  store ptr %5, ptr %11, align 8, !tbaa !13
  %14 = load ptr, ptr %7, align 8
  %15 = load ptr, ptr %8, align 8, !tbaa !13
  %16 = load i8, ptr %9, align 1, !tbaa !55, !range !59, !noundef !60
  %17 = trunc i8 %16 to i1
  %18 = load i64, ptr %10, align 8, !tbaa !15
  %19 = call noundef ptr @_ZN9grpc_core11json_detail13LoaderForTypeISt6vectorINS_32FaultInjectionMethodParsedConfig20FaultInjectionPolicyESaIS4_EEEEPKNS0_15LoaderInterfaceEv()
  %20 = load ptr, ptr %11, align 8, !tbaa !13
  call void @_ZN9grpc_core11json_detail7ElementC2INS_32FaultInjectionMethodParsedConfigESt6vectorINS3_20FaultInjectionPolicyESaIS5_EEEEPKcbMT_T0_PKNS0_15LoaderInterfaceES9_(ptr noundef nonnull align 8 dereferenceable(32) %12, ptr noundef %15, i1 noundef zeroext %17, i64 %18, ptr noundef %19, ptr noundef %20)
  call void @_ZN9grpc_core11json_detail16JsonObjectLoaderINS_32FaultInjectionMethodParsedConfigELm1EEC2ERKNS0_3VecINS0_7ElementELm0EEES5_(ptr noundef nonnull align 8 dereferenceable(32) %0, ptr noundef nonnull align 1 dereferenceable(1) %14, ptr noundef byval(%"struct.grpc_core::json_detail::Element") align 8 %12)
  ret void
}

; Function Attrs: mustprogress uwtable
define linkonce_odr noundef ptr @_ZNK9grpc_core11json_detail16JsonObjectLoaderINS_32FaultInjectionMethodParsedConfigELm1EE6FinishEv(ptr noundef nonnull align 8 dereferenceable(32) %0) #4 comdat align 2 personality ptr @__gxx_personality_v0 {
  %2 = alloca ptr, align 8
  %3 = alloca ptr, align 8
  %4 = alloca i32, align 4
  store ptr %0, ptr %2, align 8, !tbaa !82
  %5 = load ptr, ptr %2, align 8
  %6 = call noalias noundef nonnull ptr @_Znwm(i64 noundef 40) #19
  %7 = getelementptr inbounds nuw %"class.grpc_core::json_detail::JsonObjectLoader.49", ptr %5, i32 0, i32 0
  invoke void @_ZN9grpc_core11json_detail24FinishedJsonObjectLoaderINS_32FaultInjectionMethodParsedConfigELm1EvEC2ERKNS0_3VecINS0_7ElementELm1EEE(ptr noundef nonnull align 8 dereferenceable(40) %6, ptr noundef nonnull align 8 dereferenceable(32) %7)
          to label %8 unwind label %9

8:                                                ; preds = %1
  ret ptr %6

9:                                                ; preds = %1
  %10 = landingpad { ptr, i32 }
          cleanup
  %11 = extractvalue { ptr, i32 } %10, 0
  store ptr %11, ptr %3, align 8
  %12 = extractvalue { ptr, i32 } %10, 1
  store i32 %12, ptr %4, align 4
  call void @_ZdlPvm(ptr noundef %6, i64 noundef 40) #20
  br label %13

13:                                               ; preds = %9
  %14 = load ptr, ptr %3, align 8
  %15 = load i32, ptr %4, align 4
  %16 = insertvalue { ptr, i32 } poison, ptr %14, 0
  %17 = insertvalue { ptr, i32 } %16, i32 %15, 1
  resume { ptr, i32 } %17
}

; Function Attrs: mustprogress uwtable
define linkonce_odr void @_ZNK9grpc_core11json_detail16JsonObjectLoaderINS_32FaultInjectionMethodParsedConfigELm0EE13OptionalFieldISt6vectorINS2_20FaultInjectionPolicyESaIS6_EEEENS1_IS2_Lm1EEEPKcMS2_T_SB_(ptr dead_on_unwind noalias writable sret(%"class.grpc_core::json_detail::JsonObjectLoader.49") align 8 %0, ptr noundef nonnull align 1 dereferenceable(1) %1, ptr noundef %2, i64 %3, ptr noundef %4) #4 comdat align 2 {
  %6 = alloca ptr, align 8
  %7 = alloca ptr, align 8
  %8 = alloca i64, align 8
  %9 = alloca ptr, align 8
  store ptr %1, ptr %6, align 8, !tbaa !80
  store ptr %2, ptr %7, align 8, !tbaa !13
  store i64 %3, ptr %8, align 8, !tbaa !15
  store ptr %4, ptr %9, align 8, !tbaa !13
  %10 = load ptr, ptr %6, align 8
  %11 = load ptr, ptr %7, align 8, !tbaa !13
  %12 = load i64, ptr %8, align 8, !tbaa !15
  %13 = load ptr, ptr %9, align 8, !tbaa !13
  call void @_ZNK9grpc_core11json_detail16JsonObjectLoaderINS_32FaultInjectionMethodParsedConfigELm0EE5FieldISt6vectorINS2_20FaultInjectionPolicyESaIS6_EEEENS1_IS2_Lm1EEEPKcbMS2_T_SB_(ptr dead_on_unwind writable sret(%"class.grpc_core::json_detail::JsonObjectLoader.49") align 8 %0, ptr noundef nonnull align 1 dereferenceable(1) %10, ptr noundef %11, i1 noundef zeroext true, i64 %12, ptr noundef %13)
  ret void
}

; Function Attrs: mustprogress nounwind uwtable
define linkonce_odr void @_ZN9grpc_core11json_detail16JsonObjectLoaderINS_32FaultInjectionMethodParsedConfigELm0EEC2Ev(ptr noundef nonnull align 1 dereferenceable(1) %0) unnamed_addr #6 comdat align 2 {
  %2 = alloca ptr, align 8
  store ptr %0, ptr %2, align 8, !tbaa !80
  ret void
}

; Function Attrs: mustprogress uwtable
define noundef ptr @_ZN9grpc_core32FaultInjectionMethodParsedConfig10JsonLoaderERKNS_8JsonArgsE(ptr noundef nonnull align 8 dereferenceable(8) %0) #4 align 2 personality ptr @__gxx_personality_v0 {
  %2 = alloca ptr, align 8
  %3 = alloca %"class.grpc_core::json_detail::JsonObjectLoader.49", align 8
  %4 = alloca %"class.grpc_core::json_detail::JsonObjectLoader.50", align 1
  %5 = alloca ptr, align 8
  %6 = alloca i32, align 4
  store ptr %0, ptr %2, align 8, !tbaa !3
  %7 = load atomic i8, ptr @_ZGVZN9grpc_core32FaultInjectionMethodParsedConfig10JsonLoaderERKNS_8JsonArgsEE6loader acquire, align 8
  %8 = icmp eq i8 %7, 0
  br i1 %8, label %9, label %17, !prof !8

9:                                                ; preds = %1
  %10 = call i32 @__cxa_guard_acquire(ptr @_ZGVZN9grpc_core32FaultInjectionMethodParsedConfig10JsonLoaderERKNS_8JsonArgsEE6loader) #3
  %11 = icmp ne i32 %10, 0
  br i1 %11, label %12, label %17

12:                                               ; preds = %9
  call void @llvm.lifetime.start.p0(i64 32, ptr %3) #3
  call void @llvm.lifetime.start.p0(i64 1, ptr %4) #3
  invoke void @_ZN9grpc_core11json_detail16JsonObjectLoaderINS_32FaultInjectionMethodParsedConfigELm0EEC2Ev(ptr noundef nonnull align 1 dereferenceable(1) %4)
          to label %13 unwind label %19

13:                                               ; preds = %12
  invoke void @_ZNK9grpc_core11json_detail16JsonObjectLoaderINS_32FaultInjectionMethodParsedConfigELm0EE13OptionalFieldISt6vectorINS2_20FaultInjectionPolicyESaIS6_EEEENS1_IS2_Lm1EEEPKcMS2_T_SB_(ptr dead_on_unwind writable sret(%"class.grpc_core::json_detail::JsonObjectLoader.49") align 8 %3, ptr noundef nonnull align 1 dereferenceable(1) %4, ptr noundef @.str.17, i64 8, ptr noundef null)
          to label %14 unwind label %19

14:                                               ; preds = %13
  %15 = invoke noundef ptr @_ZNK9grpc_core11json_detail16JsonObjectLoaderINS_32FaultInjectionMethodParsedConfigELm1EE6FinishEv(ptr noundef nonnull align 8 dereferenceable(32) %3)
          to label %16 unwind label %19

16:                                               ; preds = %14
  call void @llvm.lifetime.end.p0(i64 1, ptr %4) #3
  call void @llvm.lifetime.end.p0(i64 32, ptr %3) #3
  store ptr %15, ptr @_ZZN9grpc_core32FaultInjectionMethodParsedConfig10JsonLoaderERKNS_8JsonArgsEE6loader, align 8, !tbaa !78
  call void @__cxa_guard_release(ptr @_ZGVZN9grpc_core32FaultInjectionMethodParsedConfig10JsonLoaderERKNS_8JsonArgsEE6loader) #3
  br label %17

17:                                               ; preds = %16, %9, %1
  %18 = load ptr, ptr @_ZZN9grpc_core32FaultInjectionMethodParsedConfig10JsonLoaderERKNS_8JsonArgsEE6loader, align 8, !tbaa !78
  ret ptr %18

19:                                               ; preds = %14, %13, %12
  %20 = landingpad { ptr, i32 }
          cleanup
  %21 = extractvalue { ptr, i32 } %20, 0
  store ptr %21, ptr %5, align 8
  %22 = extractvalue { ptr, i32 } %20, 1
  store i32 %22, ptr %6, align 4
  call void @llvm.lifetime.end.p0(i64 1, ptr %4) #3
  call void @llvm.lifetime.end.p0(i64 32, ptr %3) #3
  call void @__cxa_guard_abort(ptr @_ZGVZN9grpc_core32FaultInjectionMethodParsedConfig10JsonLoaderERKNS_8JsonArgsEE6loader) #3
  br label %23

23:                                               ; preds = %19
  %24 = load ptr, ptr %5, align 8
  %25 = load i32, ptr %6, align 4
  %26 = insertvalue { ptr, i32 } poison, ptr %24, 0
  %27 = insertvalue { ptr, i32 } %26, i32 %25, 1
  resume { ptr, i32 } %27
}